; Function Attrs: mustprogress nounwind uwtable
define hidden noundef zeroext i1 @_ZNK19OpenColorIO_v2_5dev16CTFReaderACESElt18isOpParameterValidEPKc(ptr noundef nonnull readonly align 8 captures(none) dereferenceable(120) %0, ptr noundef %1) unnamed_addr #3 align 2 personality ptr @__gxx_personality_v0 {
  %3 = tail call noundef zeroext i1 @_ZNK19OpenColorIO_v2_5dev14CTFReaderOpElt18isOpParameterValidEPKc(ptr noundef nonnull align 8 dereferenceable(104) %0, ptr noundef %1) #33
  br i1 %3, label %8, label %4

4:                                                ; preds = %2
  %5 = invoke noundef i32 @_ZN19OpenColorIO_v2_5dev8Platform10StrcasecmpEPKcS2_(ptr noundef nonnull @_ZN19OpenColorIO_v2_5devL10ATTR_STYLEE, ptr noundef %1)
          to label %6 unwind label %10

6:                                                ; preds = %4
  %7 = icmp eq i32 %5, 0
  br label %8

8:                                                ; preds = %6, %2
  %9 = phi i1 [ true, %2 ], [ %7, %6 ]
  ret i1 %9

10:                                               ; preds = %4
  %11 = landingpad { ptr, i32 }
          catch ptr null
  %12 = extractvalue { ptr, i32 } %11, 0
  tail call void @__clang_call_terminate(ptr %12) #37
  unreachable
}